(ibc
BC
p0
(dp1
S'_BC__reglas'
p2
(lp3
(ibc
Regla
p4
(dp5
S'_Regla__conclusion'
p6
(ibh
Hecho
p7
(dp8
S'_Hecho__valor'
p9
S'cargar'
p10
sS'_Hecho__slot'
p11
(iframe
Slot
p12
(dp13
S'_Slot__facets'
p14
(lp15
(iframe
Facet
p16
(dp17
S'_Facet__valores'
p18
(lp19
S'buscar'
p20
aS'cargar'
p21
aS'vaciar'
p22
aS'asignar'
p23
aS'verificar_restr'
p24
aS'asignar_a_ch'
p25
aS'None'
p26
asS'_Facet__nombre'
p27
S'rango'
p28
sbasS'_Slot__nombre'
p29
S'accion'
p30
sS'_Slot__tipo'
p31
I0
sS'_Slot__metodo'
p32
I7
sS'_Slot__nombre_frame'
p33
g30
sbsbsS'_Regla__metarregla'
p34
I01
sS'_Regla__nombre'
p35
S'regla_ph_1_m'
p36
sS'_Regla__premisa'
p37
(lp38
(ibc
Cuadrupla
p39
(dp40
S'_Cuadrupla__valor'
p41
S'planificacion'
p42
sS'_Cuadrupla__slot'
p43
(iframe
Slot
p44
(dp45
S'_Slot__facets'
p46
(lp47
(iframe
Facet
p48
(dp49
S'_Facet__valores'
p50
(lp51
S'prioridad'
p52
aS'asignacion'
p53
aS'restriccion'
p54
aS'cambio de asignacion'
p55
asS'_Facet__nombre'
p56
S'rango'
p57
sbasS'_Slot__nombre'
p58
S'nombre'
p59
sS'_Slot__tipo'
p60
I0
sS'_Slot__metodo'
p61
NsS'_Slot__nombre_frame'
p62
S'contexto'
p63
sbsS'_Cuadrupla__no'
p64
I00
sS'_Cuadrupla__oprel'
p65
I0
sba(ibc
Cuadrupla
p66
(dp67
g41
S'None'
p68
sg43
(iframe
Slot
p69
(dp70
S'_Slot__facets'
p71
(lp72
(iframe
Facet
p73
(dp74
S'_Facet__valores'
p75
(lp76
S'buscar'
p77
aS'cargar'
p78
aS'vaciar'
p79
aS'asignar'
p80
aS'verificar_restr'
p81
aS'asignar_a_ch'
p82
aS'None'
p83
asS'_Facet__nombre'
p84
S'rango'
p85
sbasS'_Slot__nombre'
p86
S'accion'
p87
sS'_Slot__tipo'
p88
I0
sS'_Slot__metodo'
p89
I7
sS'_Slot__nombre_frame'
p90
g87
sbsg64
I00
sg65
I0
sbasba(ibc
Regla
p91
(dp92
S'_Regla__conclusion'
p93
(ibh
Hecho
p94
(dp95
S'_Hecho__valor'
p96
S'cargar'
p97
sS'_Hecho__slot'
p98
(iframe
Slot
p99
(dp100
S'_Slot__facets'
p101
(lp102
(iframe
Facet
p103
(dp104
S'_Facet__valores'
p105
(lp106
S'buscar'
p107
aS'cargar'
p108
aS'vaciar'
p109
aS'asignar'
p110
aS'verificar_restr'
p111
aS'asignar_a_ch'
p112
aS'None'
p113
asS'_Facet__nombre'
p114
S'rango'
p115
sbasS'_Slot__nombre'
p116
S'accion'
p117
sS'_Slot__tipo'
p118
I0
sS'_Slot__metodo'
p119
I7
sS'_Slot__nombre_frame'
p120
g117
sbsbsS'_Regla__metarregla'
p121
I01
sS'_Regla__nombre'
p122
S'regla_ph_2_m'
p123
sS'_Regla__premisa'
p124
(lp125
(ibc
Cuadrupla
p126
(dp127
S'_Cuadrupla__valor'
p128
S'planificacion'
p129
sS'_Cuadrupla__slot'
p130
(iframe
Slot
p131
(dp132
S'_Slot__facets'
p133
(lp134
(iframe
Facet
p135
(dp136
S'_Facet__valores'
p137
(lp138
S'prioridad'
p139
aS'asignacion'
p140
aS'restriccion'
p141
aS'cambio de asignacion'
p142
asS'_Facet__nombre'
p143
S'rango'
p144
sbasS'_Slot__nombre'
p145
S'nombre'
p146
sS'_Slot__tipo'
p147
I0
sS'_Slot__metodo'
p148
NsS'_Slot__nombre_frame'
p149
S'contexto'
p150
sbsS'_Cuadrupla__no'
p151
I00
sS'_Cuadrupla__oprel'
p152
I0
sba(ibc
Cuadrupla
p153
(dp154
g128
S'asignar'
p155
sg130
(iframe
Slot
p156
(dp157
S'_Slot__facets'
p158
(lp159
(iframe
Facet
p160
(dp161
S'_Facet__valores'
p162
(lp163
S'buscar'
p164
aS'cargar'
p165
aS'vaciar'
p166
aS'asignar'
p167
aS'verificar_restr'
p168
aS'asignar_a_ch'
p169
aS'None'
p170
asS'_Facet__nombre'
p171
S'rango'
p172
sbasS'_Slot__nombre'
p173
S'accion'
p174
sS'_Slot__tipo'
p175
I0
sS'_Slot__metodo'
p176
I7
sS'_Slot__nombre_frame'
p177
g174
sbsg151
I00
sg152
I0
sbasba(ibc
Regla
p178
(dp179
S'_Regla__conclusion'
p180
(ibh
Hecho
p181
(dp182
S'_Hecho__valor'
p183
S'True'
p184
sS'_Hecho__slot'
p185
(iframe
Slot
p186
(dp187
S'_Slot__facets'
p188
(lp189
(iframe
Facet
p190
(dp191
S'_Facet__valores'
p192
(lp193
S'True'
p194
aS'False'
p195
asS'_Facet__nombre'
p196
S'rango'
p197
sbasS'_Slot__nombre'
p198
S'ubicar_ok'
p199
sS'_Slot__tipo'
p200
I0
sS'_Slot__metodo'
p201
NsS'_Slot__nombre_frame'
p202
S'bandera'
p203
sbsbsS'_Regla__metarregla'
p204
I00
sS'_Regla__nombre'
p205
S'regla_ph_3'
p206
sS'_Regla__premisa'
p207
(lp208
(ibc
Cuadrupla
p209
(dp210
S'_Cuadrupla__valor'
p211
S'planificacion'
p212
sS'_Cuadrupla__slot'
p213
(iframe
Slot
p214
(dp215
S'_Slot__facets'
p216
(lp217
(iframe
Facet
p218
(dp219
S'_Facet__valores'
p220
(lp221
S'prioridad'
p222
aS'asignacion'
p223
aS'restriccion'
p224
aS'cambio de asignacion'
p225
asS'_Facet__nombre'
p226
S'rango'
p227
sbasS'_Slot__nombre'
p228
S'nombre'
p229
sS'_Slot__tipo'
p230
I0
sS'_Slot__metodo'
p231
NsS'_Slot__nombre_frame'
p232
S'contexto'
p233
sbsS'_Cuadrupla__no'
p234
I00
sS'_Cuadrupla__oprel'
p235
I0
sba(ibc
Cuadrupla
p236
(dp237
g211
g184
sg213
(iframe
Slot
p238
(dp239
S'_Slot__facets'
p240
(lp241
(iframe
Facet
p242
(dp243
S'_Facet__valores'
p244
(lp245
S'True'
p246
aS'False'
p247
asS'_Facet__nombre'
p248
S'rango'
p249
sbasS'_Slot__nombre'
p250
S'positivo'
p251
sS'_Slot__tipo'
p252
I0
sS'_Slot__metodo'
p253
NsS'_Slot__nombre_frame'
p254
S'restriccion_ph'
p255
sbsg234
I00
sg235
I0
sbasba(ibc
Regla
p256
(dp257
S'_Regla__conclusion'
p258
(ibh
Hecho
p259
(dp260
S'_Hecho__valor'
p261
S'False'
p262
sS'_Hecho__slot'
p263
(iframe
Slot
p264
(dp265
S'_Slot__facets'
p266
(lp267
(iframe
Facet
p268
(dp269
S'_Facet__valores'
p270
(lp271
S'True'
p272
aS'False'
p273
asS'_Facet__nombre'
p274
S'rango'
p275
sbasS'_Slot__nombre'
p276
S'ubicar_ok'
p277
sS'_Slot__tipo'
p278
I0
sS'_Slot__metodo'
p279
NsS'_Slot__nombre_frame'
p280
S'bandera'
p281
sbsbsS'_Regla__metarregla'
p282
I00
sS'_Regla__nombre'
p283
S'regla_ph_4'
p284
sS'_Regla__premisa'
p285
(lp286
(ibc
Cuadrupla
p287
(dp288
S'_Cuadrupla__valor'
p289
S'planificacion'
p290
sS'_Cuadrupla__slot'
p291
(iframe
Slot
p292
(dp293
S'_Slot__facets'
p294
(lp295
(iframe
Facet
p296
(dp297
S'_Facet__valores'
p298
(lp299
S'prioridad'
p300
aS'asignacion'
p301
aS'restriccion'
p302
aS'cambio de asignacion'
p303
asS'_Facet__nombre'
p304
S'rango'
p305
sbasS'_Slot__nombre'
p306
S'nombre'
p307
sS'_Slot__tipo'
p308
I0
sS'_Slot__metodo'
p309
NsS'_Slot__nombre_frame'
p310
S'contexto'
p311
sbsS'_Cuadrupla__no'
p312
I00
sS'_Cuadrupla__oprel'
p313
I0
sba(ibc
Cuadrupla
p314
(dp315
g289
g262
sg291
(iframe
Slot
p316
(dp317
S'_Slot__facets'
p318
(lp319
(iframe
Facet
p320
(dp321
S'_Facet__valores'
p322
(lp323
S'True'
p324
aS'False'
p325
asS'_Facet__nombre'
p326
S'rango'
p327
sbasS'_Slot__nombre'
p328
S'positivo'
p329
sS'_Slot__tipo'
p330
I0
sS'_Slot__metodo'
p331
NsS'_Slot__nombre_frame'
p332
S'restriccion_ph'
p333
sbsg312
I00
sg313
I0
sbasba(ibc
Regla
p334
(dp335
S'_Regla__conclusion'
p336
(ibh
Hecho
p337
(dp338
S'_Hecho__valor'
p339
S'True'
p340
sS'_Hecho__slot'
p341
(iframe
Slot
p342
(dp343
S'_Slot__facets'
p344
(lp345
(iframe
Facet
p346
(dp347
S'_Facet__valores'
p348
(lp349
S'True'
p350
aS'False'
p351
asS'_Facet__nombre'
p352
S'rango'
p353
sbasS'_Slot__nombre'
p354
S'ubicar_ok_m'
p355
sS'_Slot__tipo'
p356
I0
sS'_Slot__metodo'
p357
NsS'_Slot__nombre_frame'
p358
S'bandera'
p359
sbsbsS'_Regla__metarregla'
p360
I00
sS'_Regla__nombre'
p361
S'regla_ph_5'
p362
sS'_Regla__premisa'
p363
(lp364
(ibc
Cuadrupla
p365
(dp366
S'_Cuadrupla__valor'
p367
g340
sS'_Cuadrupla__slot'
p368
(iframe
Slot
p369
(dp370
S'_Slot__facets'
p371
(lp372
(iframe
Facet
p373
(dp374
S'_Facet__valores'
p375
(lp376
S'True'
p377
aS'False'
p378
asS'_Facet__nombre'
p379
S'rango'
p380
sbasS'_Slot__nombre'
p381
S'ubicar_ok'
p382
sS'_Slot__tipo'
p383
I0
sS'_Slot__metodo'
p384
NsS'_Slot__nombre_frame'
p385
S'bandera'
p386
sbsS'_Cuadrupla__no'
p387
I00
sS'_Cuadrupla__oprel'
p388
I0
sba(ibc
Cuadrupla
p389
(dp390
g367
S'maniana'
p391
sg368
(iframe
Slot
p392
(dp393
S'_Slot__facets'
p394
(lp395
(iframe
Facet
p396
(dp397
S'_Facet__valores'
p398
(lp399
S'maniana'
p400
aS'tarde'
p401
aS'noche'
p402
asS'_Facet__nombre'
p403
S'rango'
p404
sbasS'_Slot__nombre'
p405
S'turno'
p406
sS'_Slot__tipo'
p407
I0
sS'_Slot__metodo'
p408
NsS'_Slot__nombre_frame'
p409
S'restriccion_ph'
p410
sbsg387
I00
sg388
I0
sbasba(ibc
Regla
p411
(dp412
S'_Regla__conclusion'
p413
(ibh
Hecho
p414
(dp415
S'_Hecho__valor'
p416
S'True'
p417
sS'_Hecho__slot'
p418
(iframe
Slot
p419
(dp420
S'_Slot__facets'
p421
(lp422
(iframe
Facet
p423
(dp424
S'_Facet__valores'
p425
(lp426
S'True'
p427
aS'False'
p428
asS'_Facet__nombre'
p429
S'rango'
p430
sbasS'_Slot__nombre'
p431
S'ubicar_ok_t'
p432
sS'_Slot__tipo'
p433
I0
sS'_Slot__metodo'
p434
NsS'_Slot__nombre_frame'
p435
S'bandera'
p436
sbsbsS'_Regla__metarregla'
p437
I00
sS'_Regla__nombre'
p438
S'regla_ph_6'
p439
sS'_Regla__premisa'
p440
(lp441
(ibc
Cuadrupla
p442
(dp443
S'_Cuadrupla__valor'
p444
g417
sS'_Cuadrupla__slot'
p445
(iframe
Slot
p446
(dp447
S'_Slot__facets'
p448
(lp449
(iframe
Facet
p450
(dp451
S'_Facet__valores'
p452
(lp453
S'True'
p454
aS'False'
p455
asS'_Facet__nombre'
p456
S'rango'
p457
sbasS'_Slot__nombre'
p458
S'ubicar_ok'
p459
sS'_Slot__tipo'
p460
I0
sS'_Slot__metodo'
p461
NsS'_Slot__nombre_frame'
p462
S'bandera'
p463
sbsS'_Cuadrupla__no'
p464
I00
sS'_Cuadrupla__oprel'
p465
I0
sba(ibc
Cuadrupla
p466
(dp467
g444
S'tarde'
p468
sg445
(iframe
Slot
p469
(dp470
S'_Slot__facets'
p471
(lp472
(iframe
Facet
p473
(dp474
S'_Facet__valores'
p475
(lp476
S'maniana'
p477
aS'tarde'
p478
aS'noche'
p479
asS'_Facet__nombre'
p480
S'rango'
p481
sbasS'_Slot__nombre'
p482
S'turno'
p483
sS'_Slot__tipo'
p484
I0
sS'_Slot__metodo'
p485
NsS'_Slot__nombre_frame'
p486
S'restriccion_ph'
p487
sbsg464
I00
sg465
I0
sbasba(ibc
Regla
p488
(dp489
S'_Regla__conclusion'
p490
(ibh
Hecho
p491
(dp492
S'_Hecho__valor'
p493
S'True'
p494
sS'_Hecho__slot'
p495
(iframe
Slot
p496
(dp497
S'_Slot__facets'
p498
(lp499
(iframe
Facet
p500
(dp501
S'_Facet__valores'
p502
(lp503
S'True'
p504
aS'False'
p505
asS'_Facet__nombre'
p506
S'rango'
p507
sbasS'_Slot__nombre'
p508
S'ubicar_ok_n'
p509
sS'_Slot__tipo'
p510
I0
sS'_Slot__metodo'
p511
NsS'_Slot__nombre_frame'
p512
S'bandera'
p513
sbsbsS'_Regla__metarregla'
p514
I00
sS'_Regla__nombre'
p515
S'regla_ph_7'
p516
sS'_Regla__premisa'
p517
(lp518
(ibc
Cuadrupla
p519
(dp520
S'_Cuadrupla__valor'
p521
g494
sS'_Cuadrupla__slot'
p522
(iframe
Slot
p523
(dp524
S'_Slot__facets'
p525
(lp526
(iframe
Facet
p527
(dp528
S'_Facet__valores'
p529
(lp530
S'True'
p531
aS'False'
p532
asS'_Facet__nombre'
p533
S'rango'
p534
sbasS'_Slot__nombre'
p535
S'ubicar_ok'
p536
sS'_Slot__tipo'
p537
I0
sS'_Slot__metodo'
p538
NsS'_Slot__nombre_frame'
p539
S'bandera'
p540
sbsS'_Cuadrupla__no'
p541
I00
sS'_Cuadrupla__oprel'
p542
I0
sba(ibc
Cuadrupla
p543
(dp544
g521
S'noche'
p545
sg522
(iframe
Slot
p546
(dp547
S'_Slot__facets'
p548
(lp549
(iframe
Facet
p550
(dp551
S'_Facet__valores'
p552
(lp553
S'maniana'
p554
aS'tarde'
p555
aS'noche'
p556
asS'_Facet__nombre'
p557
S'rango'
p558
sbasS'_Slot__nombre'
p559
S'turno'
p560
sS'_Slot__tipo'
p561
I0
sS'_Slot__metodo'
p562
NsS'_Slot__nombre_frame'
p563
S'restriccion_ph'
p564
sbsg541
I00
sg542
I0
sbasba(ibc
Regla
p565
(dp566
S'_Regla__conclusion'
p567
(ibh
Hecho
p568
(dp569
S'_Hecho__valor'
p570
S'False'
p571
sS'_Hecho__slot'
p572
(iframe
Slot
p573
(dp574
S'_Slot__facets'
p575
(lp576
(iframe
Facet
p577
(dp578
S'_Facet__valores'
p579
(lp580
S'True'
p581
aS'False'
p582
asS'_Facet__nombre'
p583
S'rango'
p584
sbasS'_Slot__nombre'
p585
S'ubicar_ok_m'
p586
sS'_Slot__tipo'
p587
I0
sS'_Slot__metodo'
p588
NsS'_Slot__nombre_frame'
p589
S'bandera'
p590
sbsbsS'_Regla__metarregla'
p591
I00
sS'_Regla__nombre'
p592
S'regla_ph_8'
p593
sS'_Regla__premisa'
p594
(lp595
(ibc
Cuadrupla
p596
(dp597
S'_Cuadrupla__valor'
p598
g571
sS'_Cuadrupla__slot'
p599
(iframe
Slot
p600
(dp601
S'_Slot__facets'
p602
(lp603
(iframe
Facet
p604
(dp605
S'_Facet__valores'
p606
(lp607
S'True'
p608
aS'False'
p609
asS'_Facet__nombre'
p610
S'rango'
p611
sbasS'_Slot__nombre'
p612
S'ubicar_ok'
p613
sS'_Slot__tipo'
p614
I0
sS'_Slot__metodo'
p615
NsS'_Slot__nombre_frame'
p616
S'bandera'
p617
sbsS'_Cuadrupla__no'
p618
I00
sS'_Cuadrupla__oprel'
p619
I0
sba(ibc
Cuadrupla
p620
(dp621
g598
S'maniana'
p622
sg599
(iframe
Slot
p623
(dp624
S'_Slot__facets'
p625
(lp626
(iframe
Facet
p627
(dp628
S'_Facet__valores'
p629
(lp630
S'maniana'
p631
aS'tarde'
p632
aS'noche'
p633
asS'_Facet__nombre'
p634
S'rango'
p635
sbasS'_Slot__nombre'
p636
S'turno'
p637
sS'_Slot__tipo'
p638
I0
sS'_Slot__metodo'
p639
NsS'_Slot__nombre_frame'
p640
S'restriccion_ph'
p641
sbsg618
I00
sg619
I0
sbasba(ibc
Regla
p642
(dp643
S'_Regla__conclusion'
p644
(ibh
Hecho
p645
(dp646
S'_Hecho__valor'
p647
S'False'
p648
sS'_Hecho__slot'
p649
(iframe
Slot
p650
(dp651
S'_Slot__facets'
p652
(lp653
(iframe
Facet
p654
(dp655
S'_Facet__valores'
p656
(lp657
S'True'
p658
aS'False'
p659
asS'_Facet__nombre'
p660
S'rango'
p661
sbasS'_Slot__nombre'
p662
S'ubicar_ok_t'
p663
sS'_Slot__tipo'
p664
I0
sS'_Slot__metodo'
p665
NsS'_Slot__nombre_frame'
p666
S'bandera'
p667
sbsbsS'_Regla__metarregla'
p668
I00
sS'_Regla__nombre'
p669
S'regla_ph_9'
p670
sS'_Regla__premisa'
p671
(lp672
(ibc
Cuadrupla
p673
(dp674
S'_Cuadrupla__valor'
p675
g648
sS'_Cuadrupla__slot'
p676
(iframe
Slot
p677
(dp678
S'_Slot__facets'
p679
(lp680
(iframe
Facet
p681
(dp682
S'_Facet__valores'
p683
(lp684
S'True'
p685
aS'False'
p686
asS'_Facet__nombre'
p687
S'rango'
p688
sbasS'_Slot__nombre'
p689
S'ubicar_ok'
p690
sS'_Slot__tipo'
p691
I0
sS'_Slot__metodo'
p692
NsS'_Slot__nombre_frame'
p693
S'bandera'
p694
sbsS'_Cuadrupla__no'
p695
I00
sS'_Cuadrupla__oprel'
p696
I0
sba(ibc
Cuadrupla
p697
(dp698
g675
S'tarde'
p699
sg676
(iframe
Slot
p700
(dp701
S'_Slot__facets'
p702
(lp703
(iframe
Facet
p704
(dp705
S'_Facet__valores'
p706
(lp707
S'maniana'
p708
aS'tarde'
p709
aS'noche'
p710
asS'_Facet__nombre'
p711
S'rango'
p712
sbasS'_Slot__nombre'
p713
S'turno'
p714
sS'_Slot__tipo'
p715
I0
sS'_Slot__metodo'
p716
NsS'_Slot__nombre_frame'
p717
S'restriccion_ph'
p718
sbsg695
I00
sg696
I0
sbasba(ibc
Regla
p719
(dp720
S'_Regla__conclusion'
p721
(ibh
Hecho
p722
(dp723
S'_Hecho__valor'
p724
S'False'
p725
sS'_Hecho__slot'
p726
(iframe
Slot
p727
(dp728
S'_Slot__facets'
p729
(lp730
(iframe
Facet
p731
(dp732
S'_Facet__valores'
p733
(lp734
S'True'
p735
aS'False'
p736
asS'_Facet__nombre'
p737
S'rango'
p738
sbasS'_Slot__nombre'
p739
S'ubicar_ok_n'
p740
sS'_Slot__tipo'
p741
I0
sS'_Slot__metodo'
p742
NsS'_Slot__nombre_frame'
p743
S'bandera'
p744
sbsbsS'_Regla__metarregla'
p745
I00
sS'_Regla__nombre'
p746
S'regla_ph_10'
p747
sS'_Regla__premisa'
p748
(lp749
(ibc
Cuadrupla
p750
(dp751
S'_Cuadrupla__valor'
p752
g725
sS'_Cuadrupla__slot'
p753
(iframe
Slot
p754
(dp755
S'_Slot__facets'
p756
(lp757
(iframe
Facet
p758
(dp759
S'_Facet__valores'
p760
(lp761
S'True'
p762
aS'False'
p763
asS'_Facet__nombre'
p764
S'rango'
p765
sbasS'_Slot__nombre'
p766
S'ubicar_ok'
p767
sS'_Slot__tipo'
p768
I0
sS'_Slot__metodo'
p769
NsS'_Slot__nombre_frame'
p770
S'bandera'
p771
sbsS'_Cuadrupla__no'
p772
I00
sS'_Cuadrupla__oprel'
p773
I0
sba(ibc
Cuadrupla
p774
(dp775
g752
S'noche'
p776
sg753
(iframe
Slot
p777
(dp778
S'_Slot__facets'
p779
(lp780
(iframe
Facet
p781
(dp782
S'_Facet__valores'
p783
(lp784
S'maniana'
p785
aS'tarde'
p786
aS'noche'
p787
asS'_Facet__nombre'
p788
S'rango'
p789
sbasS'_Slot__nombre'
p790
S'turno'
p791
sS'_Slot__tipo'
p792
I0
sS'_Slot__metodo'
p793
NsS'_Slot__nombre_frame'
p794
S'restriccion_ph'
p795
sbsg772
I00
sg773
I0
sbasba(ibc
Regla
p796
(dp797
S'_Regla__conclusion'
p798
(ibh
Hecho
p799
(dp800
S'_Hecho__valor'
p801
S'asignar'
p802
sS'_Hecho__slot'
p803
(iframe
Slot
p804
(dp805
S'_Slot__facets'
p806
(lp807
(iframe
Facet
p808
(dp809
S'_Facet__valores'
p810
(lp811
S'buscar'
p812
aS'cargar'
p813
aS'vaciar'
p814
aS'asignar'
p815
aS'verificar_restr'
p816
aS'asignar_a_ch'
p817
aS'None'
p818
asS'_Facet__nombre'
p819
S'rango'
p820
sbasS'_Slot__nombre'
p821
S'accion'
p822
sS'_Slot__tipo'
p823
I0
sS'_Slot__metodo'
p824
I7
sS'_Slot__nombre_frame'
p825
g822
sbsbsS'_Regla__metarregla'
p826
I00
sS'_Regla__nombre'
p827
S'regla_ph_11'
p828
sS'_Regla__premisa'
p829
(lp830
(ibc
Cuadrupla
p831
(dp832
S'_Cuadrupla__valor'
p833
S'True'
p834
sS'_Cuadrupla__slot'
p835
(iframe
Slot
p836
(dp837
S'_Slot__facets'
p838
(lp839
(iframe
Facet
p840
(dp841
S'_Facet__valores'
p842
(lp843
S'True'
p844
aS'False'
p845
asS'_Facet__nombre'
p846
S'rango'
p847
sbasS'_Slot__nombre'
p848
S'ubicar_ok_m'
p849
sS'_Slot__tipo'
p850
I0
sS'_Slot__metodo'
p851
NsS'_Slot__nombre_frame'
p852
S'bandera'
p853
sbsS'_Cuadrupla__no'
p854
I00
sS'_Cuadrupla__oprel'
p855
I0
sba(ibc
Cuadrupla
p856
(dp857
g833
S'maniana'
p858
sg835
(iframe
Slot
p859
(dp860
S'_Slot__facets'
p861
(lp862
(iframe
Facet
p863
(dp864
S'_Facet__valores'
p865
(lp866
S'maniana'
p867
aS'tarde'
p868
aS'noche'
p869
aS'disperso'
p870
asS'_Facet__nombre'
p871
S'rango'
p872
sbasS'_Slot__nombre'
p873
S'turno'
p874
sS'_Slot__tipo'
p875
I0
sS'_Slot__metodo'
p876
I7
sS'_Slot__nombre_frame'
p877
S'materia_ph'
p878
sbsg854
I00
sg855
I0
sbasba(ibc
Regla
p879
(dp880
S'_Regla__conclusion'
p881
(ibh
Hecho
p882
(dp883
S'_Hecho__valor'
p884
S'asignar'
p885
sS'_Hecho__slot'
p886
(iframe
Slot
p887
(dp888
S'_Slot__facets'
p889
(lp890
(iframe
Facet
p891
(dp892
S'_Facet__valores'
p893
(lp894
S'buscar'
p895
aS'cargar'
p896
aS'vaciar'
p897
aS'asignar'
p898
aS'verificar_restr'
p899
aS'asignar_a_ch'
p900
aS'None'
p901
asS'_Facet__nombre'
p902
S'rango'
p903
sbasS'_Slot__nombre'
p904
S'accion'
p905
sS'_Slot__tipo'
p906
I0
sS'_Slot__metodo'
p907
I7
sS'_Slot__nombre_frame'
p908
g905
sbsbsS'_Regla__metarregla'
p909
I00
sS'_Regla__nombre'
p910
S'regla_ph_12'
p911
sS'_Regla__premisa'
p912
(lp913
(ibc
Cuadrupla
p914
(dp915
S'_Cuadrupla__valor'
p916
S'True'
p917
sS'_Cuadrupla__slot'
p918
(iframe
Slot
p919
(dp920
S'_Slot__facets'
p921
(lp922
(iframe
Facet
p923
(dp924
S'_Facet__valores'
p925
(lp926
S'True'
p927
aS'False'
p928
asS'_Facet__nombre'
p929
S'rango'
p930
sbasS'_Slot__nombre'
p931
S'ubicar_ok_t'
p932
sS'_Slot__tipo'
p933
I0
sS'_Slot__metodo'
p934
NsS'_Slot__nombre_frame'
p935
S'bandera'
p936
sbsS'_Cuadrupla__no'
p937
I00
sS'_Cuadrupla__oprel'
p938
I0
sba(ibc
Cuadrupla
p939
(dp940
g916
S'tarde'
p941
sg918
(iframe
Slot
p942
(dp943
S'_Slot__facets'
p944
(lp945
(iframe
Facet
p946
(dp947
S'_Facet__valores'
p948
(lp949
S'maniana'
p950
aS'tarde'
p951
aS'noche'
p952
aS'disperso'
p953
asS'_Facet__nombre'
p954
S'rango'
p955
sbasS'_Slot__nombre'
p956
S'turno'
p957
sS'_Slot__tipo'
p958
I0
sS'_Slot__metodo'
p959
I7
sS'_Slot__nombre_frame'
p960
S'materia_ph'
p961
sbsg937
I00
sg938
I0
sbasba(ibc
Regla
p962
(dp963
S'_Regla__conclusion'
p964
(ibh
Hecho
p965
(dp966
S'_Hecho__valor'
p967
S'asignar'
p968
sS'_Hecho__slot'
p969
(iframe
Slot
p970
(dp971
S'_Slot__facets'
p972
(lp973
(iframe
Facet
p974
(dp975
S'_Facet__valores'
p976
(lp977
S'buscar'
p978
aS'cargar'
p979
aS'vaciar'
p980
aS'asignar'
p981
aS'verificar_restr'
p982
aS'asignar_a_ch'
p983
aS'None'
p984
asS'_Facet__nombre'
p985
S'rango'
p986
sbasS'_Slot__nombre'
p987
S'accion'
p988
sS'_Slot__tipo'
p989
I0
sS'_Slot__metodo'
p990
I7
sS'_Slot__nombre_frame'
p991
g988
sbsbsS'_Regla__metarregla'
p992
I00
sS'_Regla__nombre'
p993
S'regla_ph_13'
p994
sS'_Regla__premisa'
p995
(lp996
(ibc
Cuadrupla
p997
(dp998
S'_Cuadrupla__valor'
p999
S'True'
p1000
sS'_Cuadrupla__slot'
p1001
(iframe
Slot
p1002
(dp1003
S'_Slot__facets'
p1004
(lp1005
(iframe
Facet
p1006
(dp1007
S'_Facet__valores'
p1008
(lp1009
S'True'
p1010
aS'False'
p1011
asS'_Facet__nombre'
p1012
S'rango'
p1013
sbasS'_Slot__nombre'
p1014
S'ubicar_ok_n'
p1015
sS'_Slot__tipo'
p1016
I0
sS'_Slot__metodo'
p1017
NsS'_Slot__nombre_frame'
p1018
S'bandera'
p1019
sbsS'_Cuadrupla__no'
p1020
I00
sS'_Cuadrupla__oprel'
p1021
I0
sba(ibc
Cuadrupla
p1022
(dp1023
g999
S'noche'
p1024
sg1001
(iframe
Slot
p1025
(dp1026
S'_Slot__facets'
p1027
(lp1028
(iframe
Facet
p1029
(dp1030
S'_Facet__valores'
p1031
(lp1032
S'maniana'
p1033
aS'tarde'
p1034
aS'noche'
p1035
aS'disperso'
p1036
asS'_Facet__nombre'
p1037
S'rango'
p1038
sbasS'_Slot__nombre'
p1039
S'turno'
p1040
sS'_Slot__tipo'
p1041
I0
sS'_Slot__metodo'
p1042
I7
sS'_Slot__nombre_frame'
p1043
S'materia_ph'
p1044
sbsg1020
I00
sg1021
I0
sbasba(ibc
Regla
p1045
(dp1046
S'_Regla__conclusion'
p1047
(ibh
Hecho
p1048
(dp1049
S'_Hecho__valor'
p1050
S'asignar'
p1051
sS'_Hecho__slot'
p1052
(iframe
Slot
p1053
(dp1054
S'_Slot__facets'
p1055
(lp1056
(iframe
Facet
p1057
(dp1058
S'_Facet__valores'
p1059
(lp1060
S'buscar'
p1061
aS'cargar'
p1062
aS'vaciar'
p1063
aS'asignar'
p1064
aS'verificar_restr'
p1065
aS'asignar_a_ch'
p1066
aS'None'
p1067
asS'_Facet__nombre'
p1068
S'rango'
p1069
sbasS'_Slot__nombre'
p1070
S'accion'
p1071
sS'_Slot__tipo'
p1072
I0
sS'_Slot__metodo'
p1073
I7
sS'_Slot__nombre_frame'
p1074
g1071
sbsbsS'_Regla__metarregla'
p1075
I00
sS'_Regla__nombre'
p1076
S'regla_ph_15'
p1077
sS'_Regla__premisa'
p1078
(lp1079
(ibc
Cuadrupla
p1080
(dp1081
S'_Cuadrupla__valor'
p1082
S'False'
p1083
sS'_Cuadrupla__slot'
p1084
(iframe
Slot
p1085
(dp1086
S'_Slot__facets'
p1087
(lp1088
(iframe
Facet
p1089
(dp1090
S'_Facet__valores'
p1091
(lp1092
S'True'
p1093
aS'False'
p1094
asS'_Facet__nombre'
p1095
S'rango'
p1096
sbasS'_Slot__nombre'
p1097
S'ubicar_ok_m'
p1098
sS'_Slot__tipo'
p1099
I0
sS'_Slot__metodo'
p1100
NsS'_Slot__nombre_frame'
p1101
S'bandera'
p1102
sbsS'_Cuadrupla__no'
p1103
I00
sS'_Cuadrupla__oprel'
p1104
I0
sba(ibc
Cuadrupla
p1105
(dp1106
g1082
S'tarde'
p1107
sg1084
(iframe
Slot
p1108
(dp1109
S'_Slot__facets'
p1110
(lp1111
(iframe
Facet
p1112
(dp1113
S'_Facet__valores'
p1114
(lp1115
S'maniana'
p1116
aS'tarde'
p1117
aS'noche'
p1118
aS'disperso'
p1119
asS'_Facet__nombre'
p1120
S'rango'
p1121
sbasS'_Slot__nombre'
p1122
S'turno'
p1123
sS'_Slot__tipo'
p1124
I0
sS'_Slot__metodo'
p1125
I7
sS'_Slot__nombre_frame'
p1126
S'materia_ph'
p1127
sbsg1103
I00
sg1104
I0
sbasba(ibc
Regla
p1128
(dp1129
S'_Regla__conclusion'
p1130
(ibh
Hecho
p1131
(dp1132
S'_Hecho__valor'
p1133
S'asignar'
p1134
sS'_Hecho__slot'
p1135
(iframe
Slot
p1136
(dp1137
S'_Slot__facets'
p1138
(lp1139
(iframe
Facet
p1140
(dp1141
S'_Facet__valores'
p1142
(lp1143
S'buscar'
p1144
aS'cargar'
p1145
aS'vaciar'
p1146
aS'asignar'
p1147
aS'verificar_restr'
p1148
aS'asignar_a_ch'
p1149
aS'None'
p1150
asS'_Facet__nombre'
p1151
S'rango'
p1152
sbasS'_Slot__nombre'
p1153
S'accion'
p1154
sS'_Slot__tipo'
p1155
I0
sS'_Slot__metodo'
p1156
I7
sS'_Slot__nombre_frame'
p1157
g1154
sbsbsS'_Regla__metarregla'
p1158
I00
sS'_Regla__nombre'
p1159
S'regla_ph_16'
p1160
sS'_Regla__premisa'
p1161
(lp1162
(ibc
Cuadrupla
p1163
(dp1164
S'_Cuadrupla__valor'
p1165
S'False'
p1166
sS'_Cuadrupla__slot'
p1167
(iframe
Slot
p1168
(dp1169
S'_Slot__facets'
p1170
(lp1171
(iframe
Facet
p1172
(dp1173
S'_Facet__valores'
p1174
(lp1175
S'True'
p1176
aS'False'
p1177
asS'_Facet__nombre'
p1178
S'rango'
p1179
sbasS'_Slot__nombre'
p1180
S'ubicar_ok_m'
p1181
sS'_Slot__tipo'
p1182
I0
sS'_Slot__metodo'
p1183
NsS'_Slot__nombre_frame'
p1184
S'bandera'
p1185
sbsS'_Cuadrupla__no'
p1186
I00
sS'_Cuadrupla__oprel'
p1187
I0
sba(ibc
Cuadrupla
p1188
(dp1189
g1165
S'noche'
p1190
sg1167
(iframe
Slot
p1191
(dp1192
S'_Slot__facets'
p1193
(lp1194
(iframe
Facet
p1195
(dp1196
S'_Facet__valores'
p1197
(lp1198
S'maniana'
p1199
aS'tarde'
p1200
aS'noche'
p1201
aS'disperso'
p1202
asS'_Facet__nombre'
p1203
S'rango'
p1204
sbasS'_Slot__nombre'
p1205
S'turno'
p1206
sS'_Slot__tipo'
p1207
I0
sS'_Slot__metodo'
p1208
I7
sS'_Slot__nombre_frame'
p1209
S'materia_ph'
p1210
sbsg1186
I00
sg1187
I0
sbasba(ibc
Regla
p1211
(dp1212
S'_Regla__conclusion'
p1213
(ibh
Hecho
p1214
(dp1215
S'_Hecho__valor'
p1216
S'asignar'
p1217
sS'_Hecho__slot'
p1218
(iframe
Slot
p1219
(dp1220
S'_Slot__facets'
p1221
(lp1222
(iframe
Facet
p1223
(dp1224
S'_Facet__valores'
p1225
(lp1226
S'buscar'
p1227
aS'cargar'
p1228
aS'vaciar'
p1229
aS'asignar'
p1230
aS'verificar_restr'
p1231
aS'asignar_a_ch'
p1232
aS'None'
p1233
asS'_Facet__nombre'
p1234
S'rango'
p1235
sbasS'_Slot__nombre'
p1236
S'accion'
p1237
sS'_Slot__tipo'
p1238
I0
sS'_Slot__metodo'
p1239
I7
sS'_Slot__nombre_frame'
p1240
g1237
sbsbsS'_Regla__metarregla'
p1241
I00
sS'_Regla__nombre'
p1242
S'regla_ph_17'
p1243
sS'_Regla__premisa'
p1244
(lp1245
(ibc
Cuadrupla
p1246
(dp1247
S'_Cuadrupla__valor'
p1248
S'False'
p1249
sS'_Cuadrupla__slot'
p1250
(iframe
Slot
p1251
(dp1252
S'_Slot__facets'
p1253
(lp1254
(iframe
Facet
p1255
(dp1256
S'_Facet__valores'
p1257
(lp1258
S'True'
p1259
aS'False'
p1260
asS'_Facet__nombre'
p1261
S'rango'
p1262
sbasS'_Slot__nombre'
p1263
S'ubicar_ok_t'
p1264
sS'_Slot__tipo'
p1265
I0
sS'_Slot__metodo'
p1266
NsS'_Slot__nombre_frame'
p1267
S'bandera'
p1268
sbsS'_Cuadrupla__no'
p1269
I00
sS'_Cuadrupla__oprel'
p1270
I0
sba(ibc
Cuadrupla
p1271
(dp1272
g1248
S'maniana'
p1273
sg1250
(iframe
Slot
p1274
(dp1275
S'_Slot__facets'
p1276
(lp1277
(iframe
Facet
p1278
(dp1279
S'_Facet__valores'
p1280
(lp1281
S'maniana'
p1282
aS'tarde'
p1283
aS'noche'
p1284
aS'disperso'
p1285
asS'_Facet__nombre'
p1286
S'rango'
p1287
sbasS'_Slot__nombre'
p1288
S'turno'
p1289
sS'_Slot__tipo'
p1290
I0
sS'_Slot__metodo'
p1291
I7
sS'_Slot__nombre_frame'
p1292
S'materia_ph'
p1293
sbsg1269
I00
sg1270
I0
sbasba(ibc
Regla
p1294
(dp1295
S'_Regla__conclusion'
p1296
(ibh
Hecho
p1297
(dp1298
S'_Hecho__valor'
p1299
S'asignar'
p1300
sS'_Hecho__slot'
p1301
(iframe
Slot
p1302
(dp1303
S'_Slot__facets'
p1304
(lp1305
(iframe
Facet
p1306
(dp1307
S'_Facet__valores'
p1308
(lp1309
S'buscar'
p1310
aS'cargar'
p1311
aS'vaciar'
p1312
aS'asignar'
p1313
aS'verificar_restr'
p1314
aS'asignar_a_ch'
p1315
aS'None'
p1316
asS'_Facet__nombre'
p1317
S'rango'
p1318
sbasS'_Slot__nombre'
p1319
S'accion'
p1320
sS'_Slot__tipo'
p1321
I0
sS'_Slot__metodo'
p1322
I7
sS'_Slot__nombre_frame'
p1323
g1320
sbsbsS'_Regla__metarregla'
p1324
I00
sS'_Regla__nombre'
p1325
S'regla_ph_18'
p1326
sS'_Regla__premisa'
p1327
(lp1328
(ibc
Cuadrupla
p1329
(dp1330
S'_Cuadrupla__valor'
p1331
S'False'
p1332
sS'_Cuadrupla__slot'
p1333
(iframe
Slot
p1334
(dp1335
S'_Slot__facets'
p1336
(lp1337
(iframe
Facet
p1338
(dp1339
S'_Facet__valores'
p1340
(lp1341
S'True'
p1342
aS'False'
p1343
asS'_Facet__nombre'
p1344
S'rango'
p1345
sbasS'_Slot__nombre'
p1346
S'ubicar_ok_t'
p1347
sS'_Slot__tipo'
p1348
I0
sS'_Slot__metodo'
p1349
NsS'_Slot__nombre_frame'
p1350
S'bandera'
p1351
sbsS'_Cuadrupla__no'
p1352
I00
sS'_Cuadrupla__oprel'
p1353
I0
sba(ibc
Cuadrupla
p1354
(dp1355
g1331
S'noche'
p1356
sg1333
(iframe
Slot
p1357
(dp1358
S'_Slot__facets'
p1359
(lp1360
(iframe
Facet
p1361
(dp1362
S'_Facet__valores'
p1363
(lp1364
S'maniana'
p1365
aS'tarde'
p1366
aS'noche'
p1367
aS'disperso'
p1368
asS'_Facet__nombre'
p1369
S'rango'
p1370
sbasS'_Slot__nombre'
p1371
S'turno'
p1372
sS'_Slot__tipo'
p1373
I0
sS'_Slot__metodo'
p1374
I7
sS'_Slot__nombre_frame'
p1375
S'materia_ph'
p1376
sbsg1352
I00
sg1353
I0
sbasba(ibc
Regla
p1377
(dp1378
S'_Regla__conclusion'
p1379
(ibh
Hecho
p1380
(dp1381
S'_Hecho__valor'
p1382
S'asignar'
p1383
sS'_Hecho__slot'
p1384
(iframe
Slot
p1385
(dp1386
S'_Slot__facets'
p1387
(lp1388
(iframe
Facet
p1389
(dp1390
S'_Facet__valores'
p1391
(lp1392
S'buscar'
p1393
aS'cargar'
p1394
aS'vaciar'
p1395
aS'asignar'
p1396
aS'verificar_restr'
p1397
aS'asignar_a_ch'
p1398
aS'None'
p1399
asS'_Facet__nombre'
p1400
S'rango'
p1401
sbasS'_Slot__nombre'
p1402
S'accion'
p1403
sS'_Slot__tipo'
p1404
I0
sS'_Slot__metodo'
p1405
I7
sS'_Slot__nombre_frame'
p1406
g1403
sbsbsS'_Regla__metarregla'
p1407
I00
sS'_Regla__nombre'
p1408
S'regla_ph_19'
p1409
sS'_Regla__premisa'
p1410
(lp1411
(ibc
Cuadrupla
p1412
(dp1413
S'_Cuadrupla__valor'
p1414
S'False'
p1415
sS'_Cuadrupla__slot'
p1416
(iframe
Slot
p1417
(dp1418
S'_Slot__facets'
p1419
(lp1420
(iframe
Facet
p1421
(dp1422
S'_Facet__valores'
p1423
(lp1424
S'True'
p1425
aS'False'
p1426
asS'_Facet__nombre'
p1427
S'rango'
p1428
sbasS'_Slot__nombre'
p1429
S'ubicar_ok_n'
p1430
sS'_Slot__tipo'
p1431
I0
sS'_Slot__metodo'
p1432
NsS'_Slot__nombre_frame'
p1433
S'bandera'
p1434
sbsS'_Cuadrupla__no'
p1435
I00
sS'_Cuadrupla__oprel'
p1436
I0
sba(ibc
Cuadrupla
p1437
(dp1438
g1414
S'maniana'
p1439
sg1416
(iframe
Slot
p1440
(dp1441
S'_Slot__facets'
p1442
(lp1443
(iframe
Facet
p1444
(dp1445
S'_Facet__valores'
p1446
(lp1447
S'maniana'
p1448
aS'tarde'
p1449
aS'noche'
p1450
aS'disperso'
p1451
asS'_Facet__nombre'
p1452
S'rango'
p1453
sbasS'_Slot__nombre'
p1454
S'turno'
p1455
sS'_Slot__tipo'
p1456
I0
sS'_Slot__metodo'
p1457
I7
sS'_Slot__nombre_frame'
p1458
S'materia_ph'
p1459
sbsg1435
I00
sg1436
I0
sbasba(ibc
Regla
p1460
(dp1461
S'_Regla__conclusion'
p1462
(ibh
Hecho
p1463
(dp1464
S'_Hecho__valor'
p1465
S'asignar'
p1466
sS'_Hecho__slot'
p1467
(iframe
Slot
p1468
(dp1469
S'_Slot__facets'
p1470
(lp1471
(iframe
Facet
p1472
(dp1473
S'_Facet__valores'
p1474
(lp1475
S'buscar'
p1476
aS'cargar'
p1477
aS'vaciar'
p1478
aS'asignar'
p1479
aS'verificar_restr'
p1480
aS'asignar_a_ch'
p1481
aS'None'
p1482
asS'_Facet__nombre'
p1483
S'rango'
p1484
sbasS'_Slot__nombre'
p1485
S'accion'
p1486
sS'_Slot__tipo'
p1487
I0
sS'_Slot__metodo'
p1488
I7
sS'_Slot__nombre_frame'
p1489
g1486
sbsbsS'_Regla__metarregla'
p1490
I00
sS'_Regla__nombre'
p1491
S'regla_ph_20'
p1492
sS'_Regla__premisa'
p1493
(lp1494
(ibc
Cuadrupla
p1495
(dp1496
S'_Cuadrupla__valor'
p1497
S'False'
p1498
sS'_Cuadrupla__slot'
p1499
(iframe
Slot
p1500
(dp1501
S'_Slot__facets'
p1502
(lp1503
(iframe
Facet
p1504
(dp1505
S'_Facet__valores'
p1506
(lp1507
S'True'
p1508
aS'False'
p1509
asS'_Facet__nombre'
p1510
S'rango'
p1511
sbasS'_Slot__nombre'
p1512
S'ubicar_ok_n'
p1513
sS'_Slot__tipo'
p1514
I0
sS'_Slot__metodo'
p1515
NsS'_Slot__nombre_frame'
p1516
S'bandera'
p1517
sbsS'_Cuadrupla__no'
p1518
I00
sS'_Cuadrupla__oprel'
p1519
I0
sba(ibc
Cuadrupla
p1520
(dp1521
g1497
S'tarde'
p1522
sg1499
(iframe
Slot
p1523
(dp1524
S'_Slot__facets'
p1525
(lp1526
(iframe
Facet
p1527
(dp1528
S'_Facet__valores'
p1529
(lp1530
S'maniana'
p1531
aS'tarde'
p1532
aS'noche'
p1533
aS'disperso'
p1534
asS'_Facet__nombre'
p1535
S'rango'
p1536
sbasS'_Slot__nombre'
p1537
S'turno'
p1538
sS'_Slot__tipo'
p1539
I0
sS'_Slot__metodo'
p1540
I7
sS'_Slot__nombre_frame'
p1541
S'materia_ph'
p1542
sbsg1518
I00
sg1519
I0
sbasba(ibc
Regla
p1543
(dp1544
S'_Regla__conclusion'
p1545
(ibh
Hecho
p1546
(dp1547
S'_Hecho__valor'
p1548
S'asignar'
p1549
sS'_Hecho__slot'
p1550
(iframe
Slot
p1551
(dp1552
S'_Slot__facets'
p1553
(lp1554
(iframe
Facet
p1555
(dp1556
S'_Facet__valores'
p1557
(lp1558
S'buscar'
p1559
aS'cargar'
p1560
aS'vaciar'
p1561
aS'asignar'
p1562
aS'verificar_restr'
p1563
aS'asignar_a_ch'
p1564
aS'None'
p1565
asS'_Facet__nombre'
p1566
S'rango'
p1567
sbasS'_Slot__nombre'
p1568
S'accion'
p1569
sS'_Slot__tipo'
p1570
I0
sS'_Slot__metodo'
p1571
I7
sS'_Slot__nombre_frame'
p1572
g1569
sbsbsS'_Regla__metarregla'
p1573
I00
sS'_Regla__nombre'
p1574
S'regla_ph_21'
p1575
sS'_Regla__premisa'
p1576
(lp1577
(ibc
Cuadrupla
p1578
(dp1579
S'_Cuadrupla__valor'
p1580
S'True'
p1581
sS'_Cuadrupla__slot'
p1582
(iframe
Slot
p1583
(dp1584
S'_Slot__facets'
p1585
(lp1586
(iframe
Facet
p1587
(dp1588
S'_Facet__valores'
p1589
(lp1590
S'True'
p1591
aS'False'
p1592
asS'_Facet__nombre'
p1593
S'rango'
p1594
sbasS'_Slot__nombre'
p1595
S'ubicar_ok'
p1596
sS'_Slot__tipo'
p1597
I0
sS'_Slot__metodo'
p1598
NsS'_Slot__nombre_frame'
p1599
S'bandera'
p1600
sbsS'_Cuadrupla__no'
p1601
I00
sS'_Cuadrupla__oprel'
p1602
I0
sba(ibc
Cuadrupla
p1603
(dp1604
g1580
S'disperso'
p1605
sg1582
(iframe
Slot
p1606
(dp1607
S'_Slot__facets'
p1608
(lp1609
(iframe
Facet
p1610
(dp1611
S'_Facet__valores'
p1612
(lp1613
S'maniana'
p1614
aS'tarde'
p1615
aS'noche'
p1616
aS'disperso'
p1617
asS'_Facet__nombre'
p1618
S'rango'
p1619
sbasS'_Slot__nombre'
p1620
S'turno'
p1621
sS'_Slot__tipo'
p1622
I0
sS'_Slot__metodo'
p1623
I7
sS'_Slot__nombre_frame'
p1624
S'materia_ph'
p1625
sbsg1601
I00
sg1602
I0
sbasba(ibc
Regla
p1626
(dp1627
S'_Regla__conclusion'
p1628
(ibh
Hecho
p1629
(dp1630
S'_Hecho__valor'
p1631
S'asignar'
p1632
sS'_Hecho__slot'
p1633
(iframe
Slot
p1634
(dp1635
S'_Slot__facets'
p1636
(lp1637
(iframe
Facet
p1638
(dp1639
S'_Facet__valores'
p1640
(lp1641
S'buscar'
p1642
aS'cargar'
p1643
aS'vaciar'
p1644
aS'asignar'
p1645
aS'verificar_restr'
p1646
aS'asignar_a_ch'
p1647
aS'None'
p1648
asS'_Facet__nombre'
p1649
S'rango'
p1650
sbasS'_Slot__nombre'
p1651
S'accion'
p1652
sS'_Slot__tipo'
p1653
I0
sS'_Slot__metodo'
p1654
I7
sS'_Slot__nombre_frame'
p1655
g1652
sbsbsS'_Regla__metarregla'
p1656
I00
sS'_Regla__nombre'
p1657
S'regla_ph_22'
p1658
sS'_Regla__premisa'
p1659
(lp1660
(ibc
Cuadrupla
p1661
(dp1662
S'_Cuadrupla__valor'
p1663
S'cargar'
p1664
sS'_Cuadrupla__slot'
p1665
(iframe
Slot
p1666
(dp1667
S'_Slot__facets'
p1668
(lp1669
(iframe
Facet
p1670
(dp1671
S'_Facet__valores'
p1672
(lp1673
S'buscar'
p1674
aS'cargar'
p1675
aS'vaciar'
p1676
aS'asignar'
p1677
aS'verificar_restr'
p1678
aS'asignar_a_ch'
p1679
aS'None'
p1680
asS'_Facet__nombre'
p1681
S'rango'
p1682
sbasS'_Slot__nombre'
p1683
S'accion'
p1684
sS'_Slot__tipo'
p1685
I0
sS'_Slot__metodo'
p1686
I7
sS'_Slot__nombre_frame'
p1687
g1684
sbsS'_Cuadrupla__no'
p1688
I00
sS'_Cuadrupla__oprel'
p1689
I0
sba(ibc
Cuadrupla
p1690
(dp1691
g1663
S'disperso'
p1692
sg1665
(iframe
Slot
p1693
(dp1694
S'_Slot__facets'
p1695
(lp1696
(iframe
Facet
p1697
(dp1698
S'_Facet__valores'
p1699
(lp1700
S'maniana'
p1701
aS'tarde'
p1702
aS'noche'
p1703
aS'disperso'
p1704
asS'_Facet__nombre'
p1705
S'rango'
p1706
sbasS'_Slot__nombre'
p1707
S'turno'
p1708
sS'_Slot__tipo'
p1709
I0
sS'_Slot__metodo'
p1710
I7
sS'_Slot__nombre_frame'
p1711
S'materia_ph'
p1712
sbsg1688
I00
sg1689
I0
sbasba(ibc
Regla
p1713
(dp1714
S'_Regla__conclusion'
p1715
(ibh
Hecho
p1716
(dp1717
S'_Hecho__valor'
p1718
S'asignar'
p1719
sS'_Hecho__slot'
p1720
(iframe
Slot
p1721
(dp1722
S'_Slot__facets'
p1723
(lp1724
(iframe
Facet
p1725
(dp1726
S'_Facet__valores'
p1727
(lp1728
S'buscar'
p1729
aS'cargar'
p1730
aS'vaciar'
p1731
aS'asignar'
p1732
aS'verificar_restr'
p1733
aS'asignar_a_ch'
p1734
aS'None'
p1735
asS'_Facet__nombre'
p1736
S'rango'
p1737
sbasS'_Slot__nombre'
p1738
S'accion'
p1739
sS'_Slot__tipo'
p1740
I0
sS'_Slot__metodo'
p1741
I7
sS'_Slot__nombre_frame'
p1742
g1739
sbsbsS'_Regla__metarregla'
p1743
I01
sS'_Regla__nombre'
p1744
S'regla_ph_23_m'
p1745
sS'_Regla__premisa'
p1746
(lp1747
(ibc
Cuadrupla
p1748
(dp1749
S'_Cuadrupla__valor'
p1750
S'cargar'
p1751
sS'_Cuadrupla__slot'
p1752
(iframe
Slot
p1753
(dp1754
S'_Slot__facets'
p1755
(lp1756
(iframe
Facet
p1757
(dp1758
S'_Facet__valores'
p1759
(lp1760
S'buscar'
p1761
aS'cargar'
p1762
aS'vaciar'
p1763
aS'asignar'
p1764
aS'verificar_restr'
p1765
aS'asignar_a_ch'
p1766
aS'None'
p1767
asS'_Facet__nombre'
p1768
S'rango'
p1769
sbasS'_Slot__nombre'
p1770
S'accion'
p1771
sS'_Slot__tipo'
p1772
I0
sS'_Slot__metodo'
p1773
I7
sS'_Slot__nombre_frame'
p1774
g1771
sbsS'_Cuadrupla__no'
p1775
I00
sS'_Cuadrupla__oprel'
p1776
I0
sbasbasS'_BC__slots'
p1777
(lp1778
(iframe
Slot
p1779
(dp1780
S'_Slot__facets'
p1781
(lp1782
(iframe
Facet
p1783
(dp1784
S'_Facet__valores'
p1785
(lp1786
S'prioridad'
p1787
aS'asignacion'
p1788
aS'restriccion'
p1789
aS'cambio de asignacion'
p1790
asS'_Facet__nombre'
p1791
S'rango'
p1792
sbasS'_Slot__nombre'
p1793
S'nombre'
p1794
sS'_Slot__tipo'
p1795
I0
sS'_Slot__metodo'
p1796
NsS'_Slot__nombre_frame'
p1797
S'contexto'
p1798
sba(iframe
Slot
p1799
(dp1800
S'_Slot__facets'
p1801
(lp1802
(iframe
Facet
p1803
(dp1804
S'_Facet__valores'
p1805
(lp1806
S'buscar'
p1807
aS'cargar'
p1808
aS'vaciar'
p1809
aS'asignar'
p1810
aS'verificar_restr'
p1811
aS'asignar_a_ch'
p1812
aS'None'
p1813
asS'_Facet__nombre'
p1814
S'rango'
p1815
sbasS'_Slot__nombre'
p1816
S'accion'
p1817
sS'_Slot__tipo'
p1818
I0
sS'_Slot__metodo'
p1819
I7
sS'_Slot__nombre_frame'
p1820
g1817
sba(iframe
Slot
p1821
(dp1822
S'_Slot__facets'
p1823
(lp1824
(iframe
Facet
p1825
(dp1826
S'_Facet__valores'
p1827
(lp1828
S'True'
p1829
aS'False'
p1830
asS'_Facet__nombre'
p1831
S'rango'
p1832
sbasS'_Slot__nombre'
p1833
S'positivo'
p1834
sS'_Slot__tipo'
p1835
I0
sS'_Slot__metodo'
p1836
NsS'_Slot__nombre_frame'
p1837
S'restriccion_ph'
p1838
sba(iframe
Slot
p1839
(dp1840
g1823
(lp1841
(iframe
Facet
p1842
(dp1843
g1827
(lp1844
S'maniana'
p1845
aS'tarde'
p1846
aS'noche'
p1847
asg1831
g1832
sbasg1833
S'turno'
p1848
sg1835
I0
sg1836
Nsg1837
g1838
sba(iframe
Slot
p1849
(dp1850
S'_Slot__facets'
p1851
(lp1852
(iframe
Facet
p1853
(dp1854
S'_Facet__valores'
p1855
(lp1856
S'True'
p1857
aS'False'
p1858
asS'_Facet__nombre'
p1859
S'rango'
p1860
sbasS'_Slot__nombre'
p1861
S'ubicar_ok'
p1862
sS'_Slot__tipo'
p1863
I0
sS'_Slot__metodo'
p1864
NsS'_Slot__nombre_frame'
p1865
S'bandera'
p1866
sba(iframe
Slot
p1867
(dp1868
g1851
(lp1869
(iframe
Facet
p1870
(dp1871
g1855
(lp1872
g1857
ag1858
asg1859
g1860
sbasg1861
S'ubicar_ok_m'
p1873
sg1863
I0
sg1864
Nsg1865
g1866
sba(iframe
Slot
p1874
(dp1875
g1851
(lp1876
(iframe
Facet
p1877
(dp1878
g1855
(lp1879
g1857
ag1858
asg1859
g1860
sbasg1861
S'ubicar_ok_t'
p1880
sg1863
I0
sg1864
Nsg1865
g1866
sba(iframe
Slot
p1881
(dp1882
g1851
(lp1883
(iframe
Facet
p1884
(dp1885
g1855
(lp1886
g1857
ag1858
asg1859
g1860
sbasg1861
S'ubicar_ok_n'
p1887
sg1863
I0
sg1864
Nsg1865
g1866
sba(iframe
Slot
p1888
(dp1889
g1851
(lp1890
(iframe
Facet
p1891
(dp1892
g1855
(lp1893
g1857
ag1858
asg1859
g1860
sbasg1861
S'hay_materias'
p1894
sg1863
I0
sg1864
Nsg1865
g1866
sba(iframe
Slot
p1895
(dp1896
g1851
(lp1897
(iframe
Facet
p1898
(dp1899
g1855
(lp1900
g1857
ag1858
asg1859
g1860
sbasg1861
S'falta_asignar_mat_gr'
p1901
sg1863
I0
sg1864
Nsg1865
g1866
sba(iframe
Slot
p1902
(dp1903
g1851
(lp1904
(iframe
Facet
p1905
(dp1906
g1855
(lp1907
g1857
ag1858
asg1859
g1860
sbasg1861
S'cumple_restricciones'
p1908
sg1863
I0
sg1864
Nsg1865
g1866
sba(iframe
Slot
p1909
(dp1910
g1851
(lp1911
(iframe
Facet
p1912
(dp1913
g1855
(lp1914
g1857
ag1858
asg1859
g1860
sbasg1861
S'asignacion_completa'
p1915
sg1863
I0
sg1864
Nsg1865
g1866
sba(iframe
Slot
p1916
(dp1917
S'_Slot__facets'
p1918
(lp1919
sS'_Slot__nombre'
p1920
S'sigla'
p1921
sS'_Slot__tipo'
p1922
I0
sS'_Slot__metodo'
p1923
NsS'_Slot__nombre_frame'
p1924
S'materia_ph'
p1925
sba(iframe
Slot
p1926
(dp1927
g1918
(lp1928
sg1920
S'grupo'
p1929
sg1922
I0
sg1923
Nsg1924
g1925
sba(iframe
Slot
p1930
(dp1931
g1918
(lp1932
sg1920
S'aula'
p1933
sg1922
I0
sg1923
Nsg1924
g1925
sba(iframe
Slot
p1934
(dp1935
g1918
(lp1936
sg1920
S'horario'
p1937
sg1922
I6
sg1923
Nsg1924
g1925
sba(iframe
Slot
p1938
(dp1939
g1918
(lp1940
(iframe
Facet
p1941
(dp1942
S'_Facet__valores'
p1943
(lp1944
S'maniana'
p1945
aS'tarde'
p1946
aS'noche'
p1947
aS'disperso'
p1948
asS'_Facet__nombre'
p1949
S'rango'
p1950
sbasg1920
S'turno'
p1951
sg1922
I0
sg1923
I7
sg1924
g1925
sba(iframe
Slot
p1952
(dp1953
S'_Slot__facets'
p1954
(lp1955
sS'_Slot__nombre'
p1956
S'id'
p1957
sS'_Slot__tipo'
p1958
I1
sS'_Slot__metodo'
p1959
NsS'_Slot__nombre_frame'
p1960
S'horario_ph'
p1961
sba(iframe
Slot
p1962
(dp1963
g1954
(lp1964
sg1956
S'horario'
p1965
sg1958
I6
sg1959
Nsg1960
g1961
sbasb.