(lp0
(iframe
Frame
p1
(dp2
S'_Frame__nombre'
p3
S'contexto'
p4
sS'_Frame__slots'
p5
(lp6
(iframe
Slot
p7
(dp8
S'_Slot__facets'
p9
(lp10
(iframe
Facet
p11
(dp12
S'_Facet__valores'
p13
(lp14
S'prioridad'
p15
aS'asignacion'
p16
aS'restriccion'
p17
aS'cambio de asignacion'
p18
asS'_Facet__nombre'
p19
S'rango'
p20
sbasS'_Slot__nombre'
p21
S'nombre'
p22
sS'_Slot__tipo'
p23
I0
sS'_Slot__metodo'
p24
NsS'_Slot__nombre_frame'
p25
g4
sbasba(iframe
Frame
p26
(dp27
S'_Frame__nombre'
p28
S'accion'
p29
sS'_Frame__slots'
p30
(lp31
(iframe
Slot
p32
(dp33
S'_Slot__facets'
p34
(lp35
(iframe
Facet
p36
(dp37
S'_Facet__valores'
p38
(lp39
S'buscar'
p40
aS'cargar'
p41
aS'vaciar'
p42
aS'asignar'
p43
aS'verificar_restr'
p44
aS'asignar_a_ch'
p45
aS'None'
p46
asS'_Facet__nombre'
p47
S'rango'
p48
sbasS'_Slot__nombre'
p49
g29
sS'_Slot__tipo'
p50
I0
sS'_Slot__metodo'
p51
I7
sS'_Slot__nombre_frame'
p52
g29
sbasba(iframe
Frame
p53
(dp54
S'_Frame__nombre'
p55
S'restriccion_ph'
p56
sS'_Frame__slots'
p57
(lp58
(iframe
Slot
p59
(dp60
S'_Slot__facets'
p61
(lp62
(iframe
Facet
p63
(dp64
S'_Facet__valores'
p65
(lp66
S'True'
p67
aS'False'
p68
asS'_Facet__nombre'
p69
S'rango'
p70
sbasS'_Slot__nombre'
p71
S'positivo'
p72
sS'_Slot__tipo'
p73
I0
sS'_Slot__metodo'
p74
NsS'_Slot__nombre_frame'
p75
g56
sba(iframe
Slot
p76
(dp77
g61
(lp78
(iframe
Facet
p79
(dp80
g65
(lp81
S'maniana'
p82
aS'tarde'
p83
aS'noche'
p84
asg69
g70
sbasg71
S'turno'
p85
sg73
I0
sg74
Nsg75
g56
sbasba(iframe
Frame
p86
(dp87
S'_Frame__nombre'
p88
S'bandera'
p89
sS'_Frame__slots'
p90
(lp91
(iframe
Slot
p92
(dp93
S'_Slot__facets'
p94
(lp95
(iframe
Facet
p96
(dp97
S'_Facet__valores'
p98
(lp99
S'True'
p100
aS'False'
p101
asS'_Facet__nombre'
p102
S'rango'
p103
sbasS'_Slot__nombre'
p104
S'ubicar_ok'
p105
sS'_Slot__tipo'
p106
I0
sS'_Slot__metodo'
p107
NsS'_Slot__nombre_frame'
p108
g89
sba(iframe
Slot
p109
(dp110
g94
(lp111
(iframe
Facet
p112
(dp113
g98
(lp114
g100
ag101
asg102
g103
sbasg104
S'ubicar_ok_m'
p115
sg106
I0
sg107
Nsg108
g89
sba(iframe
Slot
p116
(dp117
g94
(lp118
(iframe
Facet
p119
(dp120
g98
(lp121
g100
ag101
asg102
g103
sbasg104
S'ubicar_ok_t'
p122
sg106
I0
sg107
Nsg108
g89
sba(iframe
Slot
p123
(dp124
g94
(lp125
(iframe
Facet
p126
(dp127
g98
(lp128
g100
ag101
asg102
g103
sbasg104
S'ubicar_ok_n'
p129
sg106
I0
sg107
Nsg108
g89
sba(iframe
Slot
p130
(dp131
g94
(lp132
(iframe
Facet
p133
(dp134
g98
(lp135
g100
ag101
asg102
g103
sbasg104
S'hay_materias'
p136
sg106
I0
sg107
Nsg108
g89
sba(iframe
Slot
p137
(dp138
g94
(lp139
(iframe
Facet
p140
(dp141
g98
(lp142
g100
ag101
asg102
g103
sbasg104
S'falta_asignar_mat_gr'
p143
sg106
I0
sg107
Nsg108
g89
sba(iframe
Slot
p144
(dp145
g94
(lp146
(iframe
Facet
p147
(dp148
g98
(lp149
g100
ag101
asg102
g103
sbasg104
S'cumple_restricciones'
p150
sg106
I0
sg107
Nsg108
g89
sba(iframe
Slot
p151
(dp152
g94
(lp153
(iframe
Facet
p154
(dp155
g98
(lp156
g100
ag101
asg102
g103
sbasg104
S'asignacion_completa'
p157
sg106
I0
sg107
Nsg108
g89
sbasba(iframe
Frame
p158
(dp159
S'_Frame__nombre'
p160
S'materia_ph'
p161
sS'_Frame__slots'
p162
(lp163
(iframe
Slot
p164
(dp165
S'_Slot__facets'
p166
(lp167
sS'_Slot__nombre'
p168
S'sigla'
p169
sS'_Slot__tipo'
p170
I0
sS'_Slot__metodo'
p171
NsS'_Slot__nombre_frame'
p172
g161
sba(iframe
Slot
p173
(dp174
g166
(lp175
sg168
S'grupo'
p176
sg170
I0
sg171
Nsg172
g161
sba(iframe
Slot
p177
(dp178
g166
(lp179
sg168
S'aula'
p180
sg170
I0
sg171
Nsg172
g161
sba(iframe
Slot
p181
(dp182
g166
(lp183
sg168
S'horario'
p184
sg170
I6
sg171
Nsg172
g161
sba(iframe
Slot
p185
(dp186
g166
(lp187
(iframe
Facet
p188
(dp189
S'_Facet__valores'
p190
(lp191
S'maniana'
p192
aS'tarde'
p193
aS'noche'
p194
aS'disperso'
p195
asS'_Facet__nombre'
p196
S'rango'
p197
sbasg168
S'turno'
p198
sg170
I0
sg171
I7
sg172
g161
sbasba(iframe
Frame
p199
(dp200
S'_Frame__nombre'
p201
S'horario_ph'
p202
sS'_Frame__slots'
p203
(lp204
(iframe
Slot
p205
(dp206
S'_Slot__facets'
p207
(lp208
sS'_Slot__nombre'
p209
S'id'
p210
sS'_Slot__tipo'
p211
I1
sS'_Slot__metodo'
p212
NsS'_Slot__nombre_frame'
p213
g202
sba(iframe
Slot
p214
(dp215
g207
(lp216
sg209
S'horario'
p217
sg211
I6
sg212
Nsg213
g202
sbasba.